target datalayout = "e-m:e-p270:32:32-p271:32:32-p272:64:64-i64:64-i128:128-f80:128-n8:16:32:64-S128"
target triple = "x86_64-pc-linux-gnu"

%struct.WebPDecBuffer = type { i32, i32, i32, i32, %union.anon, [4 x i32], ptr }
%union.anon = type { %struct.WebPYUVABuffer }
%struct.WebPYUVABuffer = type { ptr, ptr, ptr, ptr, i32, i32, i32, i32, i64, i64, i64, i64 }

; Function Attrs: nounwind uwtable
define void @WebPFreeDecBuffer(ptr noundef %0) #0 {
  %2 = alloca ptr, align 8
  store ptr %0, ptr %2, align 8, !tbaa !7
  %3 = load ptr, ptr %2, align 8, !tbaa !7
  %4 = icmp ne ptr %3, null
  br i1 %4, label %5, label %17

5:                                                ; preds = %1
  %6 = load ptr, ptr %2, align 8, !tbaa !7
  %7 = getelementptr inbounds nuw %struct.WebPDecBuffer, ptr %6, i32 0, i32 3
  %8 = load i32, ptr %7, align 4, !tbaa !45
  %9 = icmp sle i32 %8, 0
  br i1 %9, label %10, label %14

10:                                               ; preds = %5
  %11 = load ptr, ptr %2, align 8, !tbaa !7
  %12 = getelementptr inbounds nuw %struct.WebPDecBuffer, ptr %11, i32 0, i32 6
  %13 = load ptr, ptr %12, align 8, !tbaa !46
  call void @WebPSafeFree(ptr noundef %13)
  br label %14

14:                                               ; preds = %10, %5
  %15 = load ptr, ptr %2, align 8, !tbaa !7
  %16 = getelementptr inbounds nuw %struct.WebPDecBuffer, ptr %15, i32 0, i32 6
  store ptr null, ptr %16, align 8, !tbaa !46
  br label %17

17:                                               ; preds = %14, %1
  ret void
}