; Function Attrs: nounwind uwtable
define void @WebPFreeDecBuffer(ptr noundef captures(address_is_null) %0) local_unnamed_addr #3 {
  %.not = icmp eq ptr %0, null
  br i1 %.not, label %11, label %2

2:                                                ; preds = %1
  %3 = getelementptr inbounds nuw i8, ptr %0, i64 12
  %4 = load i32, ptr %3, align 4, !tbaa !36
  %5 = icmp slt i32 %4, 1
  br i1 %5, label %6, label %9

6:                                                ; preds = %2
  %7 = getelementptr inbounds nuw i8, ptr %0, i64 112
  %8 = load ptr, ptr %7, align 8, !tbaa !37
  tail call void @WebPSafeFree(ptr noundef %8) #10
  br label %9

9:                                                ; preds = %6, %2
  %10 = getelementptr inbounds nuw i8, ptr %0, i64 112
  store ptr null, ptr %10, align 8, !tbaa !37
  br label %11

11:                                               ; preds = %9, %1
  ret void
}